(dp0
S'kpt'
p1
cnumpy.core.multiarray
_reconstruct
p2
(cnumpy
ndarray
p3
(I0
tp4
S'b'
p5
tp6
Rp7
(I1
(I1
I3
tp8
cnumpy
dtype
p9
(S'f8'
p10
I0
I1
tp11
Rp12
(I3
S'<'
p13
NNNI-1
I-1
I0
tp14
bI00
S'\x00\x00\x00\x00\x00\x00\x00\x00\x00\x00\x00\x00\x00\x00\x00\x00\x00\x00\x00\x00\x00\x00\x00\x00'
p15
tp16
bsS'kptopt'
p17
I1
sS'shiftk'
p18
(lp19
F0.0
aF0.0
aF0.0
asS'ngkpt'
p20
(lp21
I1
aI1
aI1
asS'nkpt'
p22
I1
sS'wtk'
p23
g2
(g3
(I0
tp24
g5
tp25
Rp26
(I1
(I1
tp27
g12
I00
S'\x00\x00\x00\x00\x00\x00\xf0?'
p28
tp29
bsS'nshiftk'
p30
I1
s.